; Function Attrs: nounwind uwtable
define ptr @l_Lean_evalConstCheck___at_Lean_KeyedDeclsAttribute_init___spec__1___rarg(ptr noundef %0, ptr noundef %1, ptr noundef %2, ptr noundef %3, ptr noundef %4) local_unnamed_addr #1 {
  %6 = tail call ptr @lean_st_ref_get(ptr noundef %3, ptr noundef %4) #6
  %7 = getelementptr inbounds nuw i8, ptr %6, i64 8
  %8 = load ptr, ptr %7, align 8, !tbaa !9
  %9 = ptrtoint ptr %8 to i64
  %10 = and i64 %9, 1
  %.not = icmp eq i64 %10, 0
  br i1 %.not, label %11, label %lean_inc.exit24

11:                                               ; preds = %5
  %.val.i = load i32, ptr %8, align 4, !tbaa !4
  %12 = icmp sgt i32 %.val.i, 0
  br i1 %12, label %13, label %15, !prof !11

13:                                               ; preds = %11
  %14 = add nuw i32 %.val.i, 1
  store i32 %14, ptr %8, align 4, !tbaa !4
  br label %lean_inc.exit24

15:                                               ; preds = %11
  %.not.i29 = icmp eq i32 %.val.i, 0
  br i1 %.not.i29, label %lean_inc.exit24, label %16

16:                                               ; preds = %15
  tail call void @lean_inc_ref_cold(ptr noundef nonnull %8) #6
  br label %lean_inc.exit24

lean_inc.exit24:                                  ; preds = %16, %15, %13, %5
  %17 = getelementptr inbounds nuw i8, ptr %6, i64 16
  %18 = load ptr, ptr %17, align 8, !tbaa !9
  %19 = ptrtoint ptr %18 to i64
  %20 = and i64 %19, 1
  %.not36 = icmp eq i64 %20, 0
  br i1 %.not36, label %21, label %lean_inc.exit23

21:                                               ; preds = %lean_inc.exit24
  %.val.i30 = load i32, ptr %18, align 4, !tbaa !4
  %22 = icmp sgt i32 %.val.i30, 0
  br i1 %22, label %23, label %25, !prof !11

23:                                               ; preds = %21
  %24 = add nuw i32 %.val.i30, 1
  store i32 %24, ptr %18, align 4, !tbaa !4
  br label %lean_inc.exit23

25:                                               ; preds = %21
  %.not.i31 = icmp eq i32 %.val.i30, 0
  br i1 %.not.i31, label %lean_inc.exit23, label %26

26:                                               ; preds = %25
  tail call void @lean_inc_ref_cold(ptr noundef nonnull %18) #6
  br label %lean_inc.exit23

lean_inc.exit23:                                  ; preds = %26, %25, %23, %lean_inc.exit24
  %27 = ptrtoint ptr %6 to i64
  %28 = and i64 %27, 1
  %.not37 = icmp eq i64 %28, 0
  br i1 %.not37, label %29, label %lean_dec.exit22

29:                                               ; preds = %lean_inc.exit23
  %30 = load i32, ptr %6, align 4, !tbaa !4
  %31 = icmp sgt i32 %30, 1
  br i1 %31, label %32, label %34, !prof !11

32:                                               ; preds = %29
  %33 = add nsw i32 %30, -1
  store i32 %33, ptr %6, align 4, !tbaa !4
  br label %lean_dec.exit22

34:                                               ; preds = %29
  %.not.i = icmp eq i32 %30, 0
  br i1 %.not.i, label %lean_dec.exit22, label %35

35:                                               ; preds = %34
  tail call void @lean_dec_ref_cold(ptr noundef nonnull %6) #6
  br label %lean_dec.exit22

lean_dec.exit22:                                  ; preds = %35, %34, %32, %lean_inc.exit23
  %36 = getelementptr inbounds nuw i8, ptr %8, i64 8
  %37 = load ptr, ptr %36, align 8, !tbaa !9
  %38 = ptrtoint ptr %37 to i64
  %39 = and i64 %38, 1
  %.not38 = icmp eq i64 %39, 0
  br i1 %.not38, label %40, label %lean_inc.exit

40:                                               ; preds = %lean_dec.exit22
  %.val.i33 = load i32, ptr %37, align 4, !tbaa !4
  %41 = icmp sgt i32 %.val.i33, 0
  br i1 %41, label %42, label %44, !prof !11

42:                                               ; preds = %40
  %43 = add nuw i32 %.val.i33, 1
  store i32 %43, ptr %37, align 4, !tbaa !4
  br label %lean_inc.exit

44:                                               ; preds = %40
  %.not.i34 = icmp eq i32 %.val.i33, 0
  br i1 %.not.i34, label %lean_inc.exit, label %45

45:                                               ; preds = %44
  tail call void @lean_inc_ref_cold(ptr noundef nonnull %37) #6
  br label %lean_inc.exit

lean_inc.exit:                                    ; preds = %45, %44, %42, %lean_dec.exit22
  br i1 %.not, label %46, label %lean_dec.exit21

46:                                               ; preds = %lean_inc.exit
  %47 = load i32, ptr %8, align 4, !tbaa !4
  %48 = icmp sgt i32 %47, 1
  br i1 %48, label %49, label %51, !prof !11

49:                                               ; preds = %46
  %50 = add nsw i32 %47, -1
  store i32 %50, ptr %8, align 4, !tbaa !4
  br label %lean_dec.exit21

51:                                               ; preds = %46
  %.not.i25 = icmp eq i32 %47, 0
  br i1 %.not.i25, label %lean_dec.exit21, label %52

52:                                               ; preds = %51
  tail call void @lean_dec_ref_cold(ptr noundef nonnull %8) #6
  br label %lean_dec.exit21

lean_dec.exit21:                                  ; preds = %52, %51, %49, %lean_inc.exit
  %53 = getelementptr inbounds nuw i8, ptr %2, i64 24
  %54 = load ptr, ptr %53, align 8, !tbaa !9
  %55 = tail call ptr @l_Lean_Environment_evalConstCheck___rarg(ptr noundef %37, ptr noundef %54, ptr noundef %0, ptr noundef %1) #6
  %56 = tail call ptr @l_Lean_ofExcept___at_Lean_KeyedDeclsAttribute_init___spec__2___rarg(ptr noundef %55, ptr noundef %2, ptr noundef %3, ptr noundef %18)
  %57 = ptrtoint ptr %55 to i64
  %58 = and i64 %57, 1
  %.not39 = icmp eq i64 %58, 0
  br i1 %.not39, label %59, label %lean_dec.exit

59:                                               ; preds = %lean_dec.exit21
  %60 = load i32, ptr %55, align 4, !tbaa !4
  %61 = icmp sgt i32 %60, 1
  br i1 %61, label %62, label %64, !prof !11

62:                                               ; preds = %59
  %63 = add nsw i32 %60, -1
  store i32 %63, ptr %55, align 4, !tbaa !4
  br label %lean_dec.exit

64:                                               ; preds = %59
  %.not.i27 = icmp eq i32 %60, 0
  br i1 %.not.i27, label %lean_dec.exit, label %65

65:                                               ; preds = %64
  tail call void @lean_dec_ref_cold(ptr noundef nonnull %55) #6
  br label %lean_dec.exit

lean_dec.exit:                                    ; preds = %65, %64, %62, %lean_dec.exit21
  ret ptr %56
}